target datalayout = "e-m:e-p270:32:32-p271:32:32-p272:64:64-i64:64-i128:128-f80:128-n8:16:32:64-S128"
target triple = "x86_64-pc-linux-gnu"

%struct.PgStat_IO = type { i64, [17 x %struct.PgStat_BktypeIO] }
%struct.PgStat_BktypeIO = type { [3 x [5 x [8 x i64]]], [3 x [5 x [8 x i64]]], [3 x [5 x [8 x i64]]] }
%struct.LWLock = type { i16, %struct.pg_atomic_uint32, %struct.proclist_head }
%struct.pg_atomic_uint32 = type { i32 }
%struct.proclist_head = type { i32, i32 }
%struct.PgStatShared_IO = type { [17 x %struct.LWLock], %struct.PgStat_IO }

; Function Attrs: nounwind uwtable
define dso_local void @pgstat_io_init_shmem_cb(ptr noundef %0) #0 {
  %2 = alloca ptr, align 8
  %3 = alloca ptr, align 8
  %4 = alloca i32, align 4
  store ptr %0, ptr %2, align 8
  call void @llvm.lifetime.start.p0(i64 8, ptr %3) #8
  %5 = load ptr, ptr %2, align 8
  store ptr %5, ptr %3, align 8
  call void @llvm.lifetime.start.p0(i64 4, ptr %4) #8
  store i32 0, ptr %4, align 4
  br label %6

6:                                                ; preds = %16, %1
  %7 = load i32, ptr %4, align 4
  %8 = icmp slt i32 %7, 17
  br i1 %8, label %10, label %9

9:                                                ; preds = %6
  call void @llvm.lifetime.end.p0(i64 4, ptr %4) #8
  br label %19

10:                                               ; preds = %6
  %11 = load ptr, ptr %3, align 8
  %12 = getelementptr inbounds nuw %struct.PgStatShared_IO, ptr %11, i32 0, i32 0
  %13 = load i32, ptr %4, align 4
  %14 = sext i32 %13 to i64
  %15 = getelementptr inbounds [17 x %struct.LWLock], ptr %12, i64 0, i64 %14
  call void @LWLockInitialize(ptr noundef %15, i32 noundef 79)
  br label %16

16:                                               ; preds = %10
  %17 = load i32, ptr %4, align 4
  %18 = add i32 %17, 1
  store i32 %18, ptr %4, align 4
  br label %6, !llvm.loop !13

19:                                               ; preds = %9
  call void @llvm.lifetime.end.p0(i64 8, ptr %3) #8
  ret void
}