; Function Attrs: nounwind uwtable
define dso_local void @pgstat_io_init_shmem_cb(ptr noundef %0) local_unnamed_addr #3 {
  br label %3

2:                                                ; preds = %3
  ret void

3:                                                ; preds = %1, %3
  %indvars.iv = phi i64 [ 0, %1 ], [ %indvars.iv.next, %3 ]
  %4 = getelementptr inbounds nuw [17 x %struct.LWLock], ptr %0, i64 0, i64 %indvars.iv
  tail call void @LWLockInitialize(ptr noundef %4, i32 noundef 79) #11
  %indvars.iv.next = add nuw nsw i64 %indvars.iv, 1
  %exitcond.not = icmp eq i64 %indvars.iv.next, 17
  br i1 %exitcond.not, label %2, label %3, !llvm.loop !13
}